; Function Attrs: mustprogress nounwind uwtable
define dso_local noundef ptr @_ZN4llvm17LibCallSimplifier14optimizeStrSpnEPNS_8CallInstERNS_13IRBuilderBaseE(ptr nocapture nonnull readnone align 8 %0, ptr nocapture noundef readonly %1, ptr nocapture nonnull readnone align 8 %2) local_unnamed_addr #0 align 2 {
  %4 = alloca %"class.llvm::StringRef", align 8
  %5 = alloca %"class.llvm::StringRef", align 8
  call void @llvm.memset.p0.i64(ptr noundef nonnull align 8 dereferenceable(16) %4, i8 0, i64 16, i1 false)
  call void @llvm.memset.p0.i64(ptr noundef nonnull align 8 dereferenceable(16) %5, i8 0, i64 16, i1 false)
  %6 = getelementptr inbounds nuw i8, ptr %1, i64 4
  %7 = load i32, ptr %6, align 4
  %8 = and i32 %7, 134217727
  %9 = zext nneg i32 %8 to i64
  %10 = sub nsw i64 0, %9
  %11 = getelementptr inbounds %"class.llvm::Use", ptr %1, i64 %10
  %12 = load ptr, ptr %11, align 8
  %13 = call noundef zeroext i1 @_ZN4llvm21getConstantStringInfoEPKNS_5ValueERNS_9StringRefEb(ptr noundef %12, ptr noundef nonnull align 8 dereferenceable(16) %4, i1 noundef zeroext true) #24
  %14 = load i32, ptr %6, align 4
  %15 = and i32 %14, 134217727
  %16 = zext nneg i32 %15 to i64
  %17 = sub nsw i64 0, %16
  %18 = getelementptr inbounds %"class.llvm::Use", ptr %1, i64 %17
  %19 = getelementptr inbounds i8, ptr %18, i64 32
  %20 = load ptr, ptr %19, align 8
  %21 = call noundef zeroext i1 @_ZN4llvm21getConstantStringInfoEPKNS_5ValueERNS_9StringRefEb(ptr noundef %20, ptr noundef nonnull align 8 dereferenceable(16) %5, i1 noundef zeroext true) #24
  %22 = getelementptr inbounds nuw i8, ptr %4, i64 8
  %23 = load i64, ptr %22, align 8
  %24 = icmp eq i64 %23, 0
  %or.cond = select i1 %13, i1 %24, i1 false
  br i1 %or.cond, label %30, label %25

25:                                               ; preds = %3
  br i1 %21, label %26, label %.thread

26:                                               ; preds = %25
  %27 = getelementptr inbounds i8, ptr %5, i64 8
  %28 = load i64, ptr %27, align 8
  %29 = icmp eq i64 %28, 0
  br i1 %29, label %30, label %34

30:                                               ; preds = %3, %26
  %31 = getelementptr inbounds nuw i8, ptr %1, i64 8
  %32 = load ptr, ptr %31, align 8
  %33 = call noundef ptr @_ZN4llvm8Constant12getNullValueEPNS_4TypeE(ptr noundef %32) #24
  br label %.thread

34:                                               ; preds = %26
  br i1 %13, label %35, label %.thread

35:                                               ; preds = %34
  %.sroa.0.0.copyload = load ptr, ptr %5, align 8
  %36 = call noundef i64 @_ZNK4llvm9StringRef17find_first_not_ofES0_m(ptr noundef nonnull align 8 dereferenceable(16) %4, ptr %.sroa.0.0.copyload, i64 %28, i64 noundef 0) #24
  %37 = icmp eq i64 %36, -1
  %38 = load i64, ptr %22, align 8
  %.010 = select i1 %37, i64 %38, i64 %36
  %39 = getelementptr inbounds nuw i8, ptr %1, i64 8
  %40 = load ptr, ptr %39, align 8
  %41 = call noundef ptr @_ZN4llvm11ConstantInt3getEPNS_4TypeEmb(ptr noundef %40, i64 noundef %.010, i1 noundef zeroext false) #24
  br label %.thread

.thread:                                          ; preds = %25, %34, %35, %30
  %.0 = phi ptr [ %33, %30 ], [ %41, %35 ], [ null, %34 ], [ null, %25 ]
  ret ptr %.0
}